target datalayout = "e-m:e-p270:32:32-p271:32:32-p272:64:64-i64:64-i128:128-f80:128-n8:16:32:64-S128"
target triple = "x86_64-pc-linux-gnu"

%struct._lv_tree_node_t = type { ptr, ptr, i32, i32, ptr }

; Function Attrs: nounwind uwtable
define zeroext i1 @lv_tree_walk(ptr noundef %0, i8 noundef zeroext %1, ptr noundef %2, ptr noundef %3, ptr noundef %4, ptr noundef %5) #0 {
  %7 = alloca i1, align 1
  %8 = alloca ptr, align 8
  %9 = alloca i8, align 1
  %10 = alloca ptr, align 8
  %11 = alloca ptr, align 8
  %12 = alloca ptr, align 8
  %13 = alloca ptr, align 8
  %14 = alloca i32, align 4
  %15 = alloca i32, align 4
  store ptr %0, ptr %8, align 8, !tbaa !3
  store i8 %1, ptr %9, align 1, !tbaa !20
  store ptr %2, ptr %10, align 8, !tbaa !3
  store ptr %3, ptr %11, align 8, !tbaa !3
  store ptr %4, ptr %12, align 8, !tbaa !3
  store ptr %5, ptr %13, align 8, !tbaa !3
  %16 = load ptr, ptr %8, align 8, !tbaa !3
  %17 = icmp ne ptr %16, null
  br i1 %17, label %18, label %110

18:                                               ; preds = %6
  %19 = load ptr, ptr %10, align 8, !tbaa !3
  %20 = icmp ne ptr %19, null
  br i1 %20, label %21, label %110

21:                                               ; preds = %18
  %22 = load i8, ptr %9, align 1, !tbaa !20
  %23 = zext i8 %22 to i32
  %24 = icmp eq i32 %23, 0
  br i1 %24, label %25, label %41

25:                                               ; preds = %21
  %26 = load ptr, ptr %11, align 8, !tbaa !3
  %27 = icmp ne ptr %26, null
  br i1 %27, label %28, label %34

28:                                               ; preds = %25
  %29 = load ptr, ptr %11, align 8, !tbaa !3
  %30 = load ptr, ptr %8, align 8, !tbaa !3
  %31 = load ptr, ptr %13, align 8, !tbaa !3
  %32 = call zeroext i1 %29(ptr noundef %30, ptr noundef %31)
  br i1 %32, label %34, label %33

33:                                               ; preds = %28
  store i1 false, ptr %7, align 1
  br label %111

34:                                               ; preds = %28, %25
  %35 = load ptr, ptr %10, align 8, !tbaa !3
  %36 = load ptr, ptr %8, align 8, !tbaa !3
  %37 = load ptr, ptr %13, align 8, !tbaa !3
  %38 = call zeroext i1 %35(ptr noundef %36, ptr noundef %37)
  br i1 %38, label %40, label %39

39:                                               ; preds = %34
  store i1 false, ptr %7, align 1
  br label %111

40:                                               ; preds = %34
  br label %41

41:                                               ; preds = %40, %21
  call void @llvm.lifetime.start.p0(i64 4, ptr %14) #4
  store i32 0, ptr %14, align 4, !tbaa !10
  br label %42

42:                                               ; preds = %65, %41
  %43 = load i32, ptr %14, align 4, !tbaa !10
  %44 = load ptr, ptr %8, align 8, !tbaa !3
  %45 = getelementptr inbounds nuw %struct._lv_tree_node_t, ptr %44, i32 0, i32 2
  %46 = load i32, ptr %45, align 8, !tbaa !14
  %47 = icmp ult i32 %43, %46
  br i1 %47, label %49, label %48

48:                                               ; preds = %42
  store i32 2, ptr %15, align 4
  br label %68

49:                                               ; preds = %42
  %50 = load ptr, ptr %8, align 8, !tbaa !3
  %51 = getelementptr inbounds nuw %struct._lv_tree_node_t, ptr %50, i32 0, i32 1
  %52 = load ptr, ptr %51, align 8, !tbaa !13
  %53 = load i32, ptr %14, align 4, !tbaa !10
  %54 = zext i32 %53 to i64
  %55 = getelementptr inbounds nuw ptr, ptr %52, i64 %54
  %56 = load ptr, ptr %55, align 8, !tbaa !3
  %57 = load i8, ptr %9, align 1, !tbaa !20
  %58 = load ptr, ptr %10, align 8, !tbaa !3
  %59 = load ptr, ptr %11, align 8, !tbaa !3
  %60 = load ptr, ptr %12, align 8, !tbaa !3
  %61 = load ptr, ptr %13, align 8, !tbaa !3
  %62 = call zeroext i1 @lv_tree_walk(ptr noundef %56, i8 noundef zeroext %57, ptr noundef %58, ptr noundef %59, ptr noundef %60, ptr noundef %61)
  br i1 %62, label %64, label %63

63:                                               ; preds = %49
  store i1 false, ptr %7, align 1
  store i32 1, ptr %15, align 4
  br label %68

64:                                               ; preds = %49
  br label %65

65:                                               ; preds = %64
  %66 = load i32, ptr %14, align 4, !tbaa !10
  %67 = add i32 %66, 1
  store i32 %67, ptr %14, align 4, !tbaa !10
  br label %42, !llvm.loop !21

68:                                               ; preds = %63, %48
  call void @llvm.lifetime.end.p0(i64 4, ptr %14) #4
  %69 = load i32, ptr %15, align 4
  switch i32 %69, label %113 [
    i32 2, label %70
    i32 1, label %111
  ]

70:                                               ; preds = %68
  %71 = load i8, ptr %9, align 1, !tbaa !20
  %72 = zext i8 %71 to i32
  %73 = icmp eq i32 %72, 0
  br i1 %73, label %74, label %82

74:                                               ; preds = %70
  %75 = load ptr, ptr %12, align 8, !tbaa !3
  %76 = icmp ne ptr %75, null
  br i1 %76, label %77, label %81

77:                                               ; preds = %74
  %78 = load ptr, ptr %12, align 8, !tbaa !3
  %79 = load ptr, ptr %8, align 8, !tbaa !3
  %80 = load ptr, ptr %13, align 8, !tbaa !3
  call void %78(ptr noundef %79, ptr noundef %80)
  br label %81

81:                                               ; preds = %77, %74
  br label %82

82:                                               ; preds = %81, %70
  %83 = load i8, ptr %9, align 1, !tbaa !20
  %84 = zext i8 %83 to i32
  %85 = icmp eq i32 %84, 1
  br i1 %85, label %86, label %109

86:                                               ; preds = %82
  %87 = load ptr, ptr %11, align 8, !tbaa !3
  %88 = icmp ne ptr %87, null
  br i1 %88, label %89, label %95

89:                                               ; preds = %86
  %90 = load ptr, ptr %11, align 8, !tbaa !3
  %91 = load ptr, ptr %8, align 8, !tbaa !3
  %92 = load ptr, ptr %13, align 8, !tbaa !3
  %93 = call zeroext i1 %90(ptr noundef %91, ptr noundef %92)
  br i1 %93, label %95, label %94

94:                                               ; preds = %89
  store i1 false, ptr %7, align 1
  br label %111

95:                                               ; preds = %89, %86
  %96 = load ptr, ptr %10, align 8, !tbaa !3
  %97 = load ptr, ptr %8, align 8, !tbaa !3
  %98 = load ptr, ptr %13, align 8, !tbaa !3
  %99 = call zeroext i1 %96(ptr noundef %97, ptr noundef %98)
  br i1 %99, label %101, label %100

100:                                              ; preds = %95
  store i1 false, ptr %7, align 1
  br label %111

101:                                              ; preds = %95
  %102 = load ptr, ptr %12, align 8, !tbaa !3
  %103 = icmp ne ptr %102, null
  br i1 %103, label %104, label %108

104:                                              ; preds = %101
  %105 = load ptr, ptr %12, align 8, !tbaa !3
  %106 = load ptr, ptr %8, align 8, !tbaa !3
  %107 = load ptr, ptr %13, align 8, !tbaa !3
  call void %105(ptr noundef %106, ptr noundef %107)
  br label %108

108:                                              ; preds = %104, %101
  store i1 true, ptr %7, align 1
  br label %111

109:                                              ; preds = %82
  store i1 true, ptr %7, align 1
  br label %111

110:                                              ; preds = %18, %6
  store i1 true, ptr %7, align 1
  br label %111

111:                                              ; preds = %110, %109, %108, %100, %94, %68, %39, %33
  %112 = load i1, ptr %7, align 1
  ret i1 %112

113:                                              ; preds = %68
  unreachable
}