; Function Attrs: nounwind uwtable
define zeroext i1 @lv_tree_walk(ptr noundef %0, i8 noundef zeroext %1, ptr noundef %2, ptr noundef %3, ptr noundef %4, ptr noundef %5) local_unnamed_addr #0 {
  %7 = icmp ne ptr %0, null
  %8 = icmp ne ptr %2, null
  %or.cond = and i1 %7, %8
  br i1 %or.cond, label %9, label %.loopexit

9:                                                ; preds = %6
  %10 = icmp eq i8 %1, 0
  br i1 %10, label %11, label %16

11:                                               ; preds = %9
  %.not = icmp eq ptr %3, null
  br i1 %.not, label %14, label %12

12:                                               ; preds = %11
  %13 = tail call zeroext i1 %3(ptr noundef nonnull %0, ptr noundef %5) #3
  br i1 %13, label %14, label %.loopexit

14:                                               ; preds = %12, %11
  %15 = tail call zeroext i1 %2(ptr noundef nonnull %0, ptr noundef %5) #3
  br i1 %15, label %16, label %.loopexit

16:                                               ; preds = %14, %9
  %17 = getelementptr inbounds nuw i8, ptr %0, i64 16
  %18 = load i32, ptr %17, align 8, !tbaa !16
  %.not56 = icmp eq i32 %18, 0
  br i1 %.not56, label %._crit_edge, label %.lr.ph

.lr.ph:                                           ; preds = %16
  %19 = getelementptr inbounds nuw i8, ptr %0, i64 8
  br label %24

20:                                               ; preds = %24
  %indvars.iv.next = add nuw nsw i64 %indvars.iv, 1
  %21 = load i32, ptr %17, align 8, !tbaa !16
  %22 = zext i32 %21 to i64
  %23 = icmp samesign ult i64 %indvars.iv.next, %22
  br i1 %23, label %24, label %._crit_edge, !llvm.loop !21

24:                                               ; preds = %.lr.ph, %20
  %indvars.iv = phi i64 [ 0, %.lr.ph ], [ %indvars.iv.next, %20 ]
  %25 = load ptr, ptr %19, align 8, !tbaa !15
  %26 = getelementptr inbounds nuw ptr, ptr %25, i64 %indvars.iv
  %27 = load ptr, ptr %26, align 8, !tbaa !17
  %28 = tail call zeroext i1 @lv_tree_walk(ptr noundef %27, i8 noundef zeroext %1, ptr noundef nonnull %2, ptr noundef %3, ptr noundef %4, ptr noundef %5)
  br i1 %28, label %20, label %.loopexit

._crit_edge:                                      ; preds = %20, %16
  %29 = icmp ne ptr %4, null
  %or.cond3 = and i1 %10, %29
  br i1 %or.cond3, label %.loopexit.sink.split, label %30

30:                                               ; preds = %._crit_edge
  %31 = icmp eq i8 %1, 1
  br i1 %31, label %32, label %.loopexit

32:                                               ; preds = %30
  %.not48 = icmp eq ptr %3, null
  br i1 %.not48, label %35, label %33

33:                                               ; preds = %32
  %34 = tail call zeroext i1 %3(ptr noundef nonnull %0, ptr noundef %5) #3
  br i1 %34, label %35, label %.loopexit

35:                                               ; preds = %33, %32
  %36 = tail call zeroext i1 %2(ptr noundef nonnull %0, ptr noundef %5) #3
  %brmerge.not = and i1 %29, %36
  br i1 %brmerge.not, label %.loopexit.sink.split, label %.loopexit

.loopexit.sink.split:                             ; preds = %35, %._crit_edge
  tail call void %4(ptr noundef nonnull %0, ptr noundef %5) #3
  br label %.loopexit

.loopexit:                                        ; preds = %24, %.loopexit.sink.split, %35, %6, %30, %33, %14, %12
  %.042 = phi i1 [ false, %12 ], [ false, %14 ], [ false, %33 ], [ %36, %35 ], [ true, %30 ], [ true, %6 ], [ true, %.loopexit.sink.split ], [ false, %24 ]
  ret i1 %.042
}